target datalayout = "e-m:e-p270:32:32-p271:32:32-p272:64:64-i64:64-i128:128-f80:128-n8:16:32:64-S128"
target triple = "x86_64-pc-linux-gnu"

%struct._endpoints_t = type { ptr, ptr, %struct._conversation_hash_t }
%struct._conversation_hash_t = type { ptr, ptr, ptr, i32 }
%struct._GString = type { ptr, i64, i64 }

@.str = private unnamed_addr constant [35 x i8] c"Couldn't register endpoint tap: %s\00", align 1

; Function Attrs: null_pointer_is_valid sspstrong uwtable
define hidden void @init_endpoints(ptr noundef %0, ptr noundef %1) #0 {
  %3 = alloca ptr, align 8
  %4 = alloca ptr, align 8
  %5 = alloca ptr, align 8
  %6 = alloca ptr, align 8
  %7 = alloca i64, align 8
  %8 = alloca i64, align 8
  %9 = alloca ptr, align 8
  %10 = alloca ptr, align 8
  store ptr %0, ptr %3, align 8
  store ptr %1, ptr %4, align 8
  call void @llvm.lifetime.start.p0(i64 8, ptr %5) #8
  call void @llvm.lifetime.start.p0(i64 8, ptr %6) #8
  call void @llvm.lifetime.start.p0(i64 8, ptr %7) #8
  store i64 1, ptr %7, align 8
  call void @llvm.lifetime.start.p0(i64 8, ptr %8) #8
  store i64 48, ptr %8, align 8
  call void @llvm.lifetime.start.p0(i64 8, ptr %9) #8
  %11 = load i64, ptr %8, align 8
  %12 = icmp eq i64 %11, 1
  br i1 %12, label %13, label %16

13:                                               ; preds = %2
  %14 = load i64, ptr %7, align 8
  %15 = call noalias ptr @g_malloc0(i64 noundef %14) #9
  store ptr %15, ptr %9, align 8
  br label %37

16:                                               ; preds = %2
  %17 = load i64, ptr %7, align 8
  %18 = call i1 @llvm.is.constant.i64(i64 %17)
  br i1 %18, label %19, label %32

19:                                               ; preds = %16
  %20 = load i64, ptr %8, align 8
  %21 = icmp eq i64 %20, 0
  br i1 %21, label %27, label %22

22:                                               ; preds = %19
  %23 = load i64, ptr %7, align 8
  %24 = load i64, ptr %8, align 8
  %25 = udiv i64 -1, %24
  %26 = icmp ule i64 %23, %25
  br i1 %26, label %27, label %32

27:                                               ; preds = %22, %19
  %28 = load i64, ptr %7, align 8
  %29 = load i64, ptr %8, align 8
  %30 = mul i64 %28, %29
  %31 = call noalias ptr @g_malloc0(i64 noundef %30) #9
  store ptr %31, ptr %9, align 8
  br label %36

32:                                               ; preds = %22, %16
  %33 = load i64, ptr %7, align 8
  %34 = load i64, ptr %8, align 8
  %35 = call noalias ptr @g_malloc0_n(i64 noundef %33, i64 noundef %34) #10
  store ptr %35, ptr %9, align 8
  br label %36

36:                                               ; preds = %32, %27
  br label %37

37:                                               ; preds = %36, %13
  %38 = load ptr, ptr %9, align 8
  store ptr %38, ptr %10, align 8
  call void @llvm.lifetime.end.p0(i64 8, ptr %9) #8
  call void @llvm.lifetime.end.p0(i64 8, ptr %8) #8
  call void @llvm.lifetime.end.p0(i64 8, ptr %7) #8
  %39 = load ptr, ptr %10, align 8
  store ptr %39, ptr %5, align 8
  %40 = load ptr, ptr %3, align 8
  %41 = call i32 @get_conversation_proto_id(ptr noundef %40)
  %42 = call ptr @find_protocol_by_id(i32 noundef %41)
  %43 = call ptr @proto_get_protocol_short_name(ptr noundef %42)
  %44 = load ptr, ptr %5, align 8
  %45 = getelementptr inbounds nuw %struct._endpoints_t, ptr %44, i32 0, i32 0
  store ptr %43, ptr %45, align 8
  %46 = load ptr, ptr %4, align 8
  %47 = call noalias ptr @g_strdup(ptr noundef %46)
  %48 = load ptr, ptr %5, align 8
  %49 = getelementptr inbounds nuw %struct._endpoints_t, ptr %48, i32 0, i32 1
  store ptr %47, ptr %49, align 8
  %50 = load ptr, ptr %5, align 8
  %51 = load ptr, ptr %5, align 8
  %52 = getelementptr inbounds nuw %struct._endpoints_t, ptr %51, i32 0, i32 2
  %53 = getelementptr inbounds nuw %struct._conversation_hash_t, ptr %52, i32 0, i32 2
  store ptr %50, ptr %53, align 8
  %54 = load ptr, ptr %3, align 8
  %55 = call i32 @get_conversation_proto_id(ptr noundef %54)
  %56 = call ptr @proto_get_protocol_filter_name(i32 noundef %55)
  %57 = load ptr, ptr %5, align 8
  %58 = getelementptr inbounds nuw %struct._endpoints_t, ptr %57, i32 0, i32 2
  %59 = load ptr, ptr %4, align 8
  %60 = load ptr, ptr %3, align 8
  %61 = call ptr @get_endpoint_packet_func(ptr noundef %60)
  %62 = call ptr @register_tap_listener(ptr noundef %56, ptr noundef %58, ptr noundef %59, i32 noundef 0, ptr noundef null, ptr noundef %61, ptr noundef @endpoints_draw, ptr noundef null)
  store ptr %62, ptr %6, align 8
  %63 = load ptr, ptr %6, align 8
  %64 = icmp ne ptr %63, null
  br i1 %64, label %65, label %72

65:                                               ; preds = %37
  %66 = load ptr, ptr %5, align 8
  call void @g_free(ptr noundef %66)
  %67 = load ptr, ptr %6, align 8
  %68 = getelementptr inbounds nuw %struct._GString, ptr %67, i32 0, i32 0
  %69 = load ptr, ptr %68, align 8
  call void (ptr, ...) @cmdarg_err(ptr noundef @.str, ptr noundef %69)
  %70 = load ptr, ptr %6, align 8
  %71 = call ptr @g_string_free(ptr noundef %70, i32 noundef 1)
  call void @exit(i32 noundef 1) #11
  unreachable

72:                                               ; preds = %37
  call void @llvm.lifetime.end.p0(i64 8, ptr %6) #8
  call void @llvm.lifetime.end.p0(i64 8, ptr %5) #8
  ret void
}