; Function Attrs: null_pointer_is_valid sspstrong uwtable
define hidden void @init_endpoints(ptr noundef %0, ptr noundef %1) local_unnamed_addr #0 {
  %3 = tail call noalias dereferenceable_or_null(48) ptr @g_malloc0(i64 noundef 48) #6
  %4 = tail call i32 @get_conversation_proto_id(ptr noundef %0)
  %5 = tail call ptr @find_protocol_by_id(i32 noundef %4)
  %6 = tail call ptr @proto_get_protocol_short_name(ptr noundef %5)
  store ptr %6, ptr %3, align 8
  %7 = tail call noalias ptr @g_strdup(ptr noundef %1)
  %8 = getelementptr inbounds nuw i8, ptr %3, i64 8
  store ptr %7, ptr %8, align 8
  %9 = getelementptr inbounds nuw i8, ptr %3, i64 16
  %10 = getelementptr inbounds nuw i8, ptr %3, i64 32
  store ptr %3, ptr %10, align 8
  %11 = tail call i32 @get_conversation_proto_id(ptr noundef %0)
  %12 = tail call ptr @proto_get_protocol_filter_name(i32 noundef %11)
  %13 = tail call ptr @get_endpoint_packet_func(ptr noundef %0)
  %14 = tail call ptr @register_tap_listener(ptr noundef %12, ptr noundef nonnull %9, ptr noundef %1, i32 noundef 0, ptr noundef null, ptr noundef %13, ptr noundef nonnull @endpoints_draw, ptr noundef null)
  %.not = icmp eq ptr %14, null
  br i1 %.not, label %18, label %15

15:                                               ; preds = %2
  tail call void @g_free(ptr noundef %3)
  %16 = load ptr, ptr %14, align 8
  tail call void (ptr, ...) @cmdarg_err(ptr noundef nonnull @.str, ptr noundef %16)
  %17 = tail call ptr @g_string_free(ptr noundef nonnull %14, i32 noundef 1)
  tail call void @exit(i32 noundef 1) #7
  unreachable

18:                                               ; preds = %2
  ret void
}